target datalayout = "e-m:e-p270:32:32-p271:32:32-p272:64:64-i64:64-i128:128-f80:128-n8:16:32:64-S128"
target triple = "x86_64-pc-linux-gnu"

%struct.lv_color_t = type { i8, i8, i8 }
%struct._lv_led_t = type { %struct._lv_obj_t, %struct.lv_color_t, i8 }
%struct._lv_obj_t = type { ptr, ptr, ptr, ptr, ptr, %struct.lv_area_t, i32, i16, i16 }
%struct.lv_area_t = type { i32, i32, i32, i32 }

; Function Attrs: nounwind uwtable
define void @lv_led_set_brightness(ptr noundef %0, i8 noundef zeroext %1) #0 {
  %3 = alloca ptr, align 8
  %4 = alloca i8, align 1
  %5 = alloca ptr, align 8
  %6 = alloca i32, align 4
  store ptr %0, ptr %3, align 8, !tbaa !8
  store i8 %1, ptr %4, align 1, !tbaa !13
  br label %7

7:                                                ; preds = %2
  %8 = load ptr, ptr %3, align 8, !tbaa !8
  %9 = icmp ne ptr %8, null
  br i1 %9, label %14, label %10

10:                                               ; preds = %7
  br label %11

11:                                               ; preds = %10
  br label %12

12:                                               ; preds = %11
  br label %13

13:                                               ; preds = %12, %13
  br label %13

14:                                               ; preds = %7
  br label %15

15:                                               ; preds = %14
  call void @llvm.lifetime.start.p0(i64 8, ptr %5) #4
  %16 = load ptr, ptr %3, align 8, !tbaa !8
  store ptr %16, ptr %5, align 8, !tbaa !10
  %17 = load ptr, ptr %5, align 8, !tbaa !10
  %18 = getelementptr inbounds nuw %struct._lv_led_t, ptr %17, i32 0, i32 2
  %19 = load i8, ptr %18, align 1, !tbaa !14
  %20 = zext i8 %19 to i32
  %21 = load i8, ptr %4, align 1, !tbaa !13
  %22 = zext i8 %21 to i32
  %23 = icmp eq i32 %20, %22
  br i1 %23, label %24, label %25

24:                                               ; preds = %15
  store i32 1, ptr %6, align 4
  br label %53

25:                                               ; preds = %15
  %26 = load i8, ptr %4, align 1, !tbaa !13
  %27 = zext i8 %26 to i32
  %28 = icmp slt i32 %27, 255
  br i1 %28, label %29, label %32

29:                                               ; preds = %25
  %30 = load i8, ptr %4, align 1, !tbaa !13
  %31 = zext i8 %30 to i32
  br label %33

32:                                               ; preds = %25
  br label %33

33:                                               ; preds = %32, %29
  %34 = phi i32 [ %31, %29 ], [ 255, %32 ]
  %35 = icmp sgt i32 80, %34
  br i1 %35, label %36, label %37

36:                                               ; preds = %33
  br label %47

37:                                               ; preds = %33
  %38 = load i8, ptr %4, align 1, !tbaa !13
  %39 = zext i8 %38 to i32
  %40 = icmp slt i32 %39, 255
  br i1 %40, label %41, label %44

41:                                               ; preds = %37
  %42 = load i8, ptr %4, align 1, !tbaa !13
  %43 = zext i8 %42 to i32
  br label %45

44:                                               ; preds = %37
  br label %45

45:                                               ; preds = %44, %41
  %46 = phi i32 [ %43, %41 ], [ 255, %44 ]
  br label %47

47:                                               ; preds = %45, %36
  %48 = phi i32 [ 80, %36 ], [ %46, %45 ]
  %49 = trunc i32 %48 to i8
  %50 = load ptr, ptr %5, align 8, !tbaa !10
  %51 = getelementptr inbounds nuw %struct._lv_led_t, ptr %50, i32 0, i32 2
  store i8 %49, ptr %51, align 1, !tbaa !14
  %52 = load ptr, ptr %3, align 8, !tbaa !8
  call void @lv_obj_invalidate(ptr noundef %52)
  store i32 0, ptr %6, align 4
  br label %53

53:                                               ; preds = %47, %24
  call void @llvm.lifetime.end.p0(i64 8, ptr %5) #4
  %54 = load i32, ptr %6, align 4
  switch i32 %54, label %56 [
    i32 0, label %55
    i32 1, label %55
  ]

55:                                               ; preds = %53, %53
  ret void

56:                                               ; preds = %53
  unreachable
}

; Function Attrs: nounwind uwtable
define void @lv_led_on(ptr noundef %0) #0 {
  %2 = alloca ptr, align 8
  store ptr %0, ptr %2, align 8, !tbaa !8
  %3 = load ptr, ptr %2, align 8, !tbaa !8
  call void @lv_led_set_brightness(ptr noundef %3, i8 noundef zeroext -1)
  ret void
}