; Function Attrs: nounwind uwtable
define void @lv_led_on(ptr noundef %0) local_unnamed_addr #0 {
  %.not.i = icmp eq ptr %0, null
  br i1 %.not.i, label %.preheader.i, label %2

.preheader.i:                                     ; preds = %1, %.preheader.i
  br label %.preheader.i

2:                                                ; preds = %1
  %3 = getelementptr inbounds nuw i8, ptr %0, i64 67
  %4 = load i8, ptr %3, align 1, !tbaa !3
  %5 = icmp eq i8 %4, -1
  br i1 %5, label %lv_led_set_brightness.exit, label %6

6:                                                ; preds = %2
  store i8 -1, ptr %3, align 1, !tbaa !3
  tail call void @lv_obj_invalidate(ptr noundef nonnull %0) #5
  br label %lv_led_set_brightness.exit

lv_led_set_brightness.exit:                       ; preds = %2, %6
  ret void
}